target datalayout = "e-m:e-p270:32:32-p271:32:32-p272:64:64-i64:64-i128:128-f80:128-n8:16:32:64-S128"
target triple = "x86_64-pc-linux-gnu"

%struct.UFILE = type { ptr, ptr, ptr, %struct.u_localized_string, [1024 x i16], i8, i32 }
%struct.u_localized_string = type { ptr, ptr, ptr, %struct.ULocaleBundle }
%struct.ULocaleBundle = type { ptr, [5 x ptr], i8 }

; Function Attrs: mustprogress uwtable
define void @_Z26ufile_fill_uchar_buffer_77P5UFILE(ptr noundef %0) #0 {
  %2 = alloca ptr, align 8
  %3 = alloca i32, align 4
  %4 = alloca ptr, align 8
  %5 = alloca ptr, align 8
  %6 = alloca ptr, align 8
  %7 = alloca i32, align 4
  %8 = alloca i32, align 4
  %9 = alloca i32, align 4
  %10 = alloca i32, align 4
  %11 = alloca i32, align 4
  %12 = alloca [1024 x i8], align 16
  %13 = alloca ptr, align 8
  %14 = alloca i32, align 4
  %15 = alloca ptr, align 8
  store ptr %0, ptr %2, align 8, !tbaa !3
  call void @llvm.lifetime.start.p0(i64 4, ptr %3) #10
  call void @llvm.lifetime.start.p0(i64 8, ptr %4) #10
  call void @llvm.lifetime.start.p0(i64 8, ptr %5) #10
  call void @llvm.lifetime.start.p0(i64 8, ptr %6) #10
  call void @llvm.lifetime.start.p0(i64 4, ptr %7) #10
  call void @llvm.lifetime.start.p0(i64 4, ptr %8) #10
  call void @llvm.lifetime.start.p0(i64 4, ptr %9) #10
  call void @llvm.lifetime.start.p0(i64 4, ptr %10) #10
  call void @llvm.lifetime.start.p0(i64 4, ptr %11) #10
  call void @llvm.lifetime.start.p0(i64 1024, ptr %12) #10
  call void @llvm.lifetime.start.p0(i64 8, ptr %13) #10
  %16 = load ptr, ptr %2, align 8, !tbaa !3
  %17 = getelementptr inbounds nuw %struct.UFILE, ptr %16, i32 0, i32 1
  %18 = load ptr, ptr %17, align 8, !tbaa !34
  %19 = icmp eq ptr %18, null
  br i1 %19, label %20, label %21

20:                                               ; preds = %1
  store i32 1, ptr %14, align 4
  br label %165

21:                                               ; preds = %1
  %22 = load ptr, ptr %2, align 8, !tbaa !3
  %23 = getelementptr inbounds nuw %struct.UFILE, ptr %22, i32 0, i32 3
  store ptr %23, ptr %13, align 8, !tbaa !49
  %24 = load ptr, ptr %13, align 8, !tbaa !49
  %25 = getelementptr inbounds nuw %struct.u_localized_string, ptr %24, i32 0, i32 1
  %26 = load ptr, ptr %25, align 8, !tbaa !51
  %27 = load ptr, ptr %13, align 8, !tbaa !49
  %28 = getelementptr inbounds nuw %struct.u_localized_string, ptr %27, i32 0, i32 0
  %29 = load ptr, ptr %28, align 8, !tbaa !52
  %30 = ptrtoint ptr %26 to i64
  %31 = ptrtoint ptr %29 to i64
  %32 = sub i64 %30, %31
  %33 = sdiv exact i64 %32, 2
  %34 = trunc i64 %33 to i32
  store i32 %34, ptr %11, align 4, !tbaa !31
  %35 = load ptr, ptr %2, align 8, !tbaa !3
  %36 = getelementptr inbounds nuw %struct.UFILE, ptr %35, i32 0, i32 6
  %37 = load i32, ptr %36, align 4, !tbaa !53
  %38 = icmp eq i32 %37, 0
  br i1 %38, label %39, label %43

39:                                               ; preds = %21
  %40 = load i32, ptr %11, align 4, !tbaa !31
  %41 = icmp sgt i32 %40, 0
  br i1 %41, label %42, label %43

42:                                               ; preds = %39
  store i32 1, ptr %14, align 4
  br label %165

43:                                               ; preds = %39, %21
  %44 = load i32, ptr %11, align 4, !tbaa !31
  %45 = icmp ne i32 %44, 0
  br i1 %45, label %46, label %55

46:                                               ; preds = %43
  %47 = load ptr, ptr %2, align 8, !tbaa !3
  %48 = getelementptr inbounds nuw %struct.UFILE, ptr %47, i32 0, i32 4
  %49 = getelementptr inbounds [1024 x i16], ptr %48, i64 0, i64 0
  %50 = load ptr, ptr %13, align 8, !tbaa !49
  %51 = getelementptr inbounds nuw %struct.u_localized_string, ptr %50, i32 0, i32 0
  %52 = load ptr, ptr %51, align 8, !tbaa !52
  %53 = load i32, ptr %11, align 4, !tbaa !31
  %54 = call ptr @u_memmove_77(ptr noundef %49, ptr noundef %52, i32 noundef %53)
  br label %55

55:                                               ; preds = %46, %43
  %56 = load i32, ptr %11, align 4, !tbaa !31
  %57 = sub nsw i32 1024, %56
  store i32 %57, ptr %10, align 4, !tbaa !31
  %58 = load i32, ptr %10, align 4, !tbaa !31
  %59 = load ptr, ptr %2, align 8, !tbaa !3
  %60 = getelementptr inbounds nuw %struct.UFILE, ptr %59, i32 0, i32 2
  %61 = load ptr, ptr %60, align 8, !tbaa !37
  %62 = icmp ne ptr %61, null
  br i1 %62, label %63, label %70

63:                                               ; preds = %55
  %64 = load ptr, ptr %2, align 8, !tbaa !3
  %65 = getelementptr inbounds nuw %struct.UFILE, ptr %64, i32 0, i32 2
  %66 = load ptr, ptr %65, align 8, !tbaa !37
  %67 = call signext i8 @ucnv_getMinCharSize_77(ptr noundef %66)
  %68 = sext i8 %67 to i32
  %69 = mul nsw i32 2, %68
  br label %71

70:                                               ; preds = %55
  br label %71

71:                                               ; preds = %70, %63
  %72 = phi i32 [ %69, %63 ], [ 1, %70 ]
  %73 = sdiv i32 %58, %72
  store i32 %73, ptr %8, align 4, !tbaa !31
  %74 = load ptr, ptr %2, align 8, !tbaa !3
  %75 = getelementptr inbounds nuw %struct.UFILE, ptr %74, i32 0, i32 6
  %76 = load i32, ptr %75, align 4, !tbaa !53
  %77 = icmp eq i32 %76, 0
  br i1 %77, label %78, label %100

78:                                               ; preds = %71
  call void @llvm.lifetime.start.p0(i64 8, ptr %15) #10
  %79 = getelementptr inbounds [1024 x i8], ptr %12, i64 0, i64 0
  %80 = load i32, ptr %8, align 4, !tbaa !31
  %81 = icmp slt i32 %80, 1024
  br i1 %81, label %82, label %84

82:                                               ; preds = %78
  %83 = load i32, ptr %8, align 4, !tbaa !31
  br label %85

84:                                               ; preds = %78
  br label %85

85:                                               ; preds = %84, %82
  %86 = phi i32 [ %83, %82 ], [ 1024, %84 ]
  %87 = load ptr, ptr %2, align 8, !tbaa !3
  %88 = getelementptr inbounds nuw %struct.UFILE, ptr %87, i32 0, i32 1
  %89 = load ptr, ptr %88, align 8, !tbaa !34
  %90 = call ptr @fgets(ptr noundef %79, i32 noundef %86, ptr noundef %89)
  store ptr %90, ptr %15, align 8, !tbaa !33
  %91 = load ptr, ptr %15, align 8, !tbaa !33
  %92 = icmp ne ptr %91, null
  br i1 %92, label %93, label %96

93:                                               ; preds = %85
  %94 = getelementptr inbounds [1024 x i8], ptr %12, i64 0, i64 0
  %95 = call i64 @strlen(ptr noundef %94) #13
  br label %97

96:                                               ; preds = %85
  br label %97

97:                                               ; preds = %96, %93
  %98 = phi i64 [ %95, %93 ], [ 0, %96 ]
  %99 = trunc i64 %98 to i32
  store i32 %99, ptr %9, align 4, !tbaa !31
  call void @llvm.lifetime.end.p0(i64 8, ptr %15) #10
  br label %115

100:                                              ; preds = %71
  %101 = getelementptr inbounds [1024 x i8], ptr %12, i64 0, i64 0
  %102 = load i32, ptr %8, align 4, !tbaa !31
  %103 = icmp slt i32 %102, 1024
  br i1 %103, label %104, label %106

104:                                              ; preds = %100
  %105 = load i32, ptr %8, align 4, !tbaa !31
  br label %107

106:                                              ; preds = %100
  br label %107

107:                                              ; preds = %106, %104
  %108 = phi i32 [ %105, %104 ], [ 1024, %106 ]
  %109 = sext i32 %108 to i64
  %110 = load ptr, ptr %2, align 8, !tbaa !3
  %111 = getelementptr inbounds nuw %struct.UFILE, ptr %110, i32 0, i32 1
  %112 = load ptr, ptr %111, align 8, !tbaa !34
  %113 = call i64 @fread(ptr noundef %101, i64 noundef 1, i64 noundef %109, ptr noundef %112)
  %114 = trunc i64 %113 to i32
  store i32 %114, ptr %9, align 4, !tbaa !31
  br label %115

115:                                              ; preds = %107, %97
  store i32 0, ptr %3, align 4, !tbaa !13
  %116 = getelementptr inbounds [1024 x i8], ptr %12, i64 0, i64 0
  store ptr %116, ptr %4, align 8, !tbaa !33
  %117 = getelementptr inbounds [1024 x i8], ptr %12, i64 0, i64 0
  %118 = load i32, ptr %9, align 4, !tbaa !31
  %119 = sext i32 %118 to i64
  %120 = getelementptr inbounds i8, ptr %117, i64 %119
  store ptr %120, ptr %5, align 8, !tbaa !33
  %121 = load ptr, ptr %2, align 8, !tbaa !3
  %122 = getelementptr inbounds nuw %struct.UFILE, ptr %121, i32 0, i32 4
  %123 = getelementptr inbounds [1024 x i16], ptr %122, i64 0, i64 0
  %124 = load i32, ptr %11, align 4, !tbaa !31
  %125 = sext i32 %124 to i64
  %126 = getelementptr inbounds i16, ptr %123, i64 %125
  store ptr %126, ptr %6, align 8, !tbaa !30
  store i32 1024, ptr %7, align 4, !tbaa !31
  %127 = load ptr, ptr %2, align 8, !tbaa !3
  %128 = getelementptr inbounds nuw %struct.UFILE, ptr %127, i32 0, i32 2
  %129 = load ptr, ptr %128, align 8, !tbaa !37
  %130 = icmp ne ptr %129, null
  br i1 %130, label %131, label %148

131:                                              ; preds = %115
  %132 = load ptr, ptr %2, align 8, !tbaa !3
  %133 = getelementptr inbounds nuw %struct.UFILE, ptr %132, i32 0, i32 2
  %134 = load ptr, ptr %133, align 8, !tbaa !37
  %135 = load ptr, ptr %2, align 8, !tbaa !3
  %136 = getelementptr inbounds nuw %struct.UFILE, ptr %135, i32 0, i32 4
  %137 = getelementptr inbounds [1024 x i16], ptr %136, i64 0, i64 0
  %138 = load i32, ptr %7, align 4, !tbaa !31
  %139 = sext i32 %138 to i64
  %140 = getelementptr inbounds i16, ptr %137, i64 %139
  %141 = load ptr, ptr %5, align 8, !tbaa !33
  %142 = load ptr, ptr %2, align 8, !tbaa !3
  %143 = getelementptr inbounds nuw %struct.UFILE, ptr %142, i32 0, i32 1
  %144 = load ptr, ptr %143, align 8, !tbaa !34
  %145 = call i32 @feof(ptr noundef %144) #10
  %146 = icmp ne i32 %145, 0
  %147 = zext i1 %146 to i8
  call void @ucnv_toUnicode_77(ptr noundef %134, ptr noundef %6, ptr noundef %140, ptr noundef %4, ptr noundef %141, ptr noundef null, i8 noundef signext %147, ptr noundef %3)
  br label %156

148:                                              ; preds = %115
  %149 = load ptr, ptr %4, align 8, !tbaa !33
  %150 = load ptr, ptr %6, align 8, !tbaa !30
  %151 = load i32, ptr %9, align 4, !tbaa !31
  call void @u_charsToUChars_77(ptr noundef %149, ptr noundef %150, i32 noundef %151)
  %152 = load i32, ptr %9, align 4, !tbaa !31
  %153 = load ptr, ptr %6, align 8, !tbaa !30
  %154 = sext i32 %152 to i64
  %155 = getelementptr inbounds i16, ptr %153, i64 %154
  store ptr %155, ptr %6, align 8, !tbaa !30
  br label %156

156:                                              ; preds = %148, %131
  %157 = load ptr, ptr %13, align 8, !tbaa !49
  %158 = getelementptr inbounds nuw %struct.u_localized_string, ptr %157, i32 0, i32 2
  %159 = load ptr, ptr %158, align 8, !tbaa !54
  %160 = load ptr, ptr %13, align 8, !tbaa !49
  %161 = getelementptr inbounds nuw %struct.u_localized_string, ptr %160, i32 0, i32 0
  store ptr %159, ptr %161, align 8, !tbaa !52
  %162 = load ptr, ptr %6, align 8, !tbaa !30
  %163 = load ptr, ptr %13, align 8, !tbaa !49
  %164 = getelementptr inbounds nuw %struct.u_localized_string, ptr %163, i32 0, i32 1
  store ptr %162, ptr %164, align 8, !tbaa !51
  store i32 0, ptr %14, align 4
  br label %165

165:                                              ; preds = %156, %42, %20
  call void @llvm.lifetime.end.p0(i64 8, ptr %13) #10
  call void @llvm.lifetime.end.p0(i64 1024, ptr %12) #10
  call void @llvm.lifetime.end.p0(i64 4, ptr %11) #10
  call void @llvm.lifetime.end.p0(i64 4, ptr %10) #10
  call void @llvm.lifetime.end.p0(i64 4, ptr %9) #10
  call void @llvm.lifetime.end.p0(i64 4, ptr %8) #10
  call void @llvm.lifetime.end.p0(i64 4, ptr %7) #10
  call void @llvm.lifetime.end.p0(i64 8, ptr %6) #10
  call void @llvm.lifetime.end.p0(i64 8, ptr %5) #10
  call void @llvm.lifetime.end.p0(i64 8, ptr %4) #10
  call void @llvm.lifetime.end.p0(i64 4, ptr %3) #10
  %166 = load i32, ptr %14, align 4
  switch i32 %166, label %168 [
    i32 0, label %167
    i32 1, label %167
  ]

167:                                              ; preds = %165, %165
  ret void

168:                                              ; preds = %165
  unreachable
}