; Function Attrs: mustprogress uwtable
define void @_Z26ufile_fill_uchar_buffer_77P5UFILE(ptr noundef %0) local_unnamed_addr #0 {
  %2 = alloca i32, align 4
  %3 = alloca ptr, align 8
  %4 = alloca ptr, align 8
  %5 = alloca [1024 x i8], align 16
  call void @llvm.lifetime.start.p0(i64 4, ptr nonnull %2) #12
  call void @llvm.lifetime.start.p0(i64 8, ptr nonnull %3) #12
  call void @llvm.lifetime.start.p0(i64 8, ptr nonnull %4) #12
  call void @llvm.lifetime.start.p0(i64 1024, ptr nonnull %5) #12
  %6 = getelementptr inbounds nuw i8, ptr %0, i64 8
  %7 = load ptr, ptr %6, align 8, !tbaa !32
  %8 = icmp eq ptr %7, null
  br i1 %8, label %71, label %9

9:                                                ; preds = %1
  %10 = getelementptr inbounds nuw i8, ptr %0, i64 24
  %11 = getelementptr inbounds nuw i8, ptr %0, i64 32
  %12 = load ptr, ptr %11, align 8, !tbaa !40
  %13 = load ptr, ptr %10, align 8, !tbaa !41
  %14 = ptrtoint ptr %12 to i64
  %15 = ptrtoint ptr %13 to i64
  %16 = sub i64 %14, %15
  %17 = lshr exact i64 %16, 1
  %18 = trunc i64 %17 to i32
  %19 = getelementptr inbounds nuw i8, ptr %0, i64 2156
  %20 = load i32, ptr %19, align 4, !tbaa !42
  %21 = icmp eq i32 %20, 0
  %22 = icmp sgt i32 %18, 0
  %or.cond = select i1 %21, i1 %22, i1 false
  br i1 %or.cond, label %71, label %23

23:                                               ; preds = %9
  %.not = icmp eq i32 %18, 0
  br i1 %.not, label %27, label %24

24:                                               ; preds = %23
  %25 = getelementptr inbounds nuw i8, ptr %0, i64 104
  %26 = tail call ptr @u_memmove_77(ptr noundef nonnull %25, ptr noundef %13, i32 noundef %18)
  br label %27

27:                                               ; preds = %24, %23
  %28 = sub nsw i32 1024, %18
  %29 = getelementptr inbounds nuw i8, ptr %0, i64 16
  %30 = load ptr, ptr %29, align 8, !tbaa !35
  %.not39 = icmp eq ptr %30, null
  br i1 %.not39, label %35, label %31

31:                                               ; preds = %27
  %32 = tail call signext i8 @ucnv_getMinCharSize_77(ptr noundef nonnull %30)
  %33 = sext i8 %32 to i32
  %34 = shl nsw i32 %33, 1
  br label %35

35:                                               ; preds = %27, %31
  %36 = phi i32 [ %34, %31 ], [ 1, %27 ]
  %37 = sdiv i32 %28, %36
  %38 = load i32, ptr %19, align 4, !tbaa !42
  %39 = icmp eq i32 %38, 0
  %40 = tail call i32 @llvm.smin.i32(i32 %37, i32 1024)
  br i1 %39, label %41, label %47

41:                                               ; preds = %35
  %42 = load ptr, ptr %6, align 8, !tbaa !32
  %43 = call ptr @fgets(ptr noundef nonnull %5, i32 noundef %40, ptr noundef %42)
  %.not40 = icmp eq ptr %43, null
  br i1 %.not40, label %52, label %44

44:                                               ; preds = %41
  %45 = call i64 @strlen(ptr noundef nonnull dereferenceable(1) %5) #14
  %46 = trunc i64 %45 to i32
  br label %52

47:                                               ; preds = %35
  %48 = sext i32 %40 to i64
  %49 = load ptr, ptr %6, align 8, !tbaa !32
  %50 = call i64 @fread(ptr noundef nonnull %5, i64 noundef 1, i64 noundef %48, ptr noundef %49)
  %51 = trunc i64 %50 to i32
  br label %52

52:                                               ; preds = %44, %41, %47
  %.0 = phi i32 [ %51, %47 ], [ %46, %44 ], [ 0, %41 ]
  store i32 0, ptr %2, align 4, !tbaa !3
  store ptr %5, ptr %3, align 8, !tbaa !22
  %53 = sext i32 %.0 to i64
  %54 = getelementptr inbounds nuw i8, ptr %0, i64 104
  %sext = shl i64 %16, 31
  %55 = ashr i64 %sext, 32
  %56 = getelementptr inbounds i16, ptr %54, i64 %55
  store ptr %56, ptr %4, align 8, !tbaa !21
  %57 = load ptr, ptr %29, align 8, !tbaa !35
  %.not41 = icmp eq ptr %57, null
  br i1 %.not41, label %65, label %58

58:                                               ; preds = %52
  %59 = getelementptr inbounds i8, ptr %5, i64 %53
  %60 = getelementptr inbounds nuw i8, ptr %0, i64 2152
  %61 = load ptr, ptr %6, align 8, !tbaa !32
  %62 = call i32 @feof(ptr noundef %61) #12
  %63 = icmp ne i32 %62, 0
  %64 = zext i1 %63 to i8
  call void @ucnv_toUnicode_77(ptr noundef nonnull %57, ptr noundef nonnull %4, ptr noundef nonnull %60, ptr noundef nonnull %3, ptr noundef nonnull %59, ptr noundef null, i8 noundef signext %64, ptr noundef nonnull %2)
  %.pre = load ptr, ptr %4, align 8, !tbaa !21
  br label %67

65:                                               ; preds = %52
  call void @u_charsToUChars_77(ptr noundef nonnull %5, ptr noundef nonnull %56, i32 noundef %.0)
  %66 = getelementptr inbounds i16, ptr %56, i64 %53
  br label %67

67:                                               ; preds = %65, %58
  %68 = phi ptr [ %66, %65 ], [ %.pre, %58 ]
  %69 = getelementptr inbounds nuw i8, ptr %0, i64 40
  %70 = load ptr, ptr %69, align 8, !tbaa !43
  store ptr %70, ptr %10, align 8, !tbaa !41
  store ptr %68, ptr %11, align 8, !tbaa !40
  br label %71

71:                                               ; preds = %9, %1, %67
  call void @llvm.lifetime.end.p0(i64 1024, ptr nonnull %5) #12
  call void @llvm.lifetime.end.p0(i64 8, ptr nonnull %4) #12
  call void @llvm.lifetime.end.p0(i64 8, ptr nonnull %3) #12
  call void @llvm.lifetime.end.p0(i64 4, ptr nonnull %2) #12
  ret void
}